target datalayout = "e-m:e-p270:32:32-p271:32:32-p272:64:64-i64:64-i128:128-f80:128-n8:16:32:64-S128"
target triple = "x86_64-pc-linux-gnu"

%struct.expert_field = type { i32, i32 }
%struct._packet_info = type { ptr, ptr, i32, i32, %struct.nstime_t, %struct.nstime_t, %struct.nstime_t, i8, ptr, ptr, ptr, ptr, %struct._address, %struct._address, %struct._address, %struct._address, %struct._address, %struct._address, i32, ptr, i8, [3 x i8], %struct.anon, i32, i32, i32, i32, ptr, i8, ptr, ptr, i16, i16, i32, i32, i16, i32, i32, ptr, ptr, ptr, i8, i8, i16, i16, i16, i32, i16, i16, ptr, ptr, ptr, ptr, ptr, i32, i32 }
%struct.nstime_t = type { i64, i32 }
%struct._address = type { i32, i32, ptr, ptr }
%struct.anon = type { i8, [3 x i8] }

@hf_version = internal global i32 0, align 4
@hf_opcode = internal global i32 0, align 4
@hf_result_code = internal global i32 0, align 4
@hf_sssoe = internal global i32 0, align 4
@hf_external_ip = internal global i32 0, align 4
@hf_reserved = internal global i32 0, align 4
@hf_internal_port = internal global i32 0, align 4
@hf_external_port_requested = internal global i32 0, align 4
@hf_external_port_mapped = internal global i32 0, align 4
@hf_rpmlis = internal global i32 0, align 4
@hf_pmlis = internal global i32 0, align 4
@ett_nat_pmp = internal global i32 0, align 4
@ei_natpmp_opcode_unknown = internal global %struct.expert_field zeroinitializer, align 4
@.str.115 = private unnamed_addr constant [8 x i8] c"NAT-PMP\00", align 1
@proto_nat_pmp = internal global i32 0, align 4
@.str.156 = private unnamed_addr constant [5 x i8] c", %s\00", align 1
@.str.157 = private unnamed_addr constant [19 x i8] c"Unknown opcode: %d\00", align 1

; Function Attrs: null_pointer_is_valid sspstrong uwtable
define internal i32 @dissect_nat_pmp(ptr noundef %0, ptr noundef %1, ptr noundef %2, ptr noundef %3) #0 {
  %5 = alloca ptr, align 8
  %6 = alloca ptr, align 8
  %7 = alloca ptr, align 8
  %8 = alloca ptr, align 8
  %9 = alloca ptr, align 8
  %10 = alloca ptr, align 8
  %11 = alloca ptr, align 8
  %12 = alloca i32, align 4
  %13 = alloca i32, align 4
  %14 = alloca i8, align 1
  store ptr %0, ptr %5, align 8
  store ptr %1, ptr %6, align 8
  store ptr %2, ptr %7, align 8
  store ptr %3, ptr %8, align 8
  call void @llvm.lifetime.start.p0(i64 8, ptr %9) #4
  call void @llvm.lifetime.start.p0(i64 8, ptr %10) #4
  call void @llvm.lifetime.start.p0(i64 8, ptr %11) #4
  call void @llvm.lifetime.start.p0(i64 4, ptr %12) #4
  call void @llvm.lifetime.start.p0(i64 4, ptr %13) #4
  store i32 0, ptr %13, align 4
  call void @llvm.lifetime.start.p0(i64 1, ptr %14) #4
  %15 = load ptr, ptr %6, align 8
  %16 = getelementptr inbounds nuw %struct._packet_info, ptr %15, i32 0, i32 1
  %17 = load ptr, ptr %16, align 8
  call void @col_set_str(ptr noundef %17, i32 noundef 35, ptr noundef @.str.115)
  %18 = load ptr, ptr %6, align 8
  %19 = getelementptr inbounds nuw %struct._packet_info, ptr %18, i32 0, i32 1
  %20 = load ptr, ptr %19, align 8
  call void @col_clear(ptr noundef %20, i32 noundef 25)
  %21 = load i32, ptr %13, align 4
  store i32 %21, ptr %12, align 4
  %22 = load ptr, ptr %7, align 8
  %23 = load i32, ptr @proto_nat_pmp, align 4
  %24 = load ptr, ptr %5, align 8
  %25 = load i32, ptr %13, align 4
  %26 = call ptr @proto_tree_add_item(ptr noundef %22, i32 noundef %23, ptr noundef %24, i32 noundef %25, i32 noundef -1, i32 noundef 0)
  store ptr %26, ptr %10, align 8
  %27 = load ptr, ptr %10, align 8
  %28 = load i32, ptr @ett_nat_pmp, align 4
  %29 = call ptr @proto_item_add_subtree(ptr noundef %27, i32 noundef %28)
  store ptr %29, ptr %9, align 8
  %30 = load ptr, ptr %9, align 8
  %31 = load i32, ptr @hf_version, align 4
  %32 = load ptr, ptr %5, align 8
  %33 = load i32, ptr %13, align 4
  %34 = call ptr @proto_tree_add_item(ptr noundef %30, i32 noundef %31, ptr noundef %32, i32 noundef %33, i32 noundef 1, i32 noundef 0)
  %35 = load i32, ptr %13, align 4
  %36 = add i32 %35, 1
  store i32 %36, ptr %13, align 4
  %37 = load ptr, ptr %5, align 8
  %38 = load i32, ptr %13, align 4
  %39 = call zeroext i8 @tvb_get_uint8(ptr noundef %37, i32 noundef %38)
  store i8 %39, ptr %14, align 1
  %40 = load ptr, ptr %10, align 8
  %41 = load i8, ptr %14, align 1
  %42 = zext i8 %41 to i32
  %43 = call ptr @val_to_str(i32 noundef %42, ptr noundef @opcode_vals, ptr noundef @.str.157)
  call void (ptr, ptr, ...) @proto_item_append_text(ptr noundef %40, ptr noundef @.str.156, ptr noundef %43)
  %44 = load ptr, ptr %9, align 8
  %45 = load i32, ptr @hf_opcode, align 4
  %46 = load ptr, ptr %5, align 8
  %47 = load i32, ptr %13, align 4
  %48 = call ptr @proto_tree_add_item(ptr noundef %44, i32 noundef %45, ptr noundef %46, i32 noundef %47, i32 noundef 1, i32 noundef 0)
  store ptr %48, ptr %11, align 8
  %49 = load i32, ptr %13, align 4
  %50 = add i32 %49, 1
  store i32 %50, ptr %13, align 4
  %51 = load ptr, ptr %6, align 8
  %52 = getelementptr inbounds nuw %struct._packet_info, ptr %51, i32 0, i32 1
  %53 = load ptr, ptr %52, align 8
  %54 = load i8, ptr %14, align 1
  %55 = zext i8 %54 to i32
  %56 = call ptr @val_to_str(i32 noundef %55, ptr noundef @opcode_vals, ptr noundef @.str.157)
  call void @col_add_str(ptr noundef %53, i32 noundef 25, ptr noundef %56)
  %57 = load i8, ptr %14, align 1
  %58 = zext i8 %57 to i32
  switch i32 %58, label %146 [
    i32 0, label %152
    i32 128, label %59
    i32 1, label %81
    i32 2, label %81
    i32 129, label %110
    i32 130, label %110
  ]

59:                                               ; preds = %4
  %60 = load ptr, ptr %9, align 8
  %61 = load i32, ptr @hf_result_code, align 4
  %62 = load ptr, ptr %5, align 8
  %63 = load i32, ptr %13, align 4
  %64 = call ptr @proto_tree_add_item(ptr noundef %60, i32 noundef %61, ptr noundef %62, i32 noundef %63, i32 noundef 2, i32 noundef 0)
  %65 = load i32, ptr %13, align 4
  %66 = add i32 %65, 2
  store i32 %66, ptr %13, align 4
  %67 = load ptr, ptr %9, align 8
  %68 = load i32, ptr @hf_sssoe, align 4
  %69 = load ptr, ptr %5, align 8
  %70 = load i32, ptr %13, align 4
  %71 = call ptr @proto_tree_add_item(ptr noundef %67, i32 noundef %68, ptr noundef %69, i32 noundef %70, i32 noundef 4, i32 noundef 0)
  %72 = load i32, ptr %13, align 4
  %73 = add i32 %72, 4
  store i32 %73, ptr %13, align 4
  %74 = load ptr, ptr %9, align 8
  %75 = load i32, ptr @hf_external_ip, align 4
  %76 = load ptr, ptr %5, align 8
  %77 = load i32, ptr %13, align 4
  %78 = call ptr @proto_tree_add_item(ptr noundef %74, i32 noundef %75, ptr noundef %76, i32 noundef %77, i32 noundef 4, i32 noundef 0)
  %79 = load i32, ptr %13, align 4
  %80 = add i32 %79, 4
  store i32 %80, ptr %13, align 4
  br label %152

81:                                               ; preds = %4, %4
  %82 = load ptr, ptr %9, align 8
  %83 = load i32, ptr @hf_reserved, align 4
  %84 = load ptr, ptr %5, align 8
  %85 = load i32, ptr %13, align 4
  %86 = call ptr @proto_tree_add_item(ptr noundef %82, i32 noundef %83, ptr noundef %84, i32 noundef %85, i32 noundef 2, i32 noundef 0)
  %87 = load i32, ptr %13, align 4
  %88 = add i32 %87, 2
  store i32 %88, ptr %13, align 4
  %89 = load ptr, ptr %9, align 8
  %90 = load i32, ptr @hf_internal_port, align 4
  %91 = load ptr, ptr %5, align 8
  %92 = load i32, ptr %13, align 4
  %93 = call ptr @proto_tree_add_item(ptr noundef %89, i32 noundef %90, ptr noundef %91, i32 noundef %92, i32 noundef 2, i32 noundef 0)
  %94 = load i32, ptr %13, align 4
  %95 = add i32 %94, 2
  store i32 %95, ptr %13, align 4
  %96 = load ptr, ptr %9, align 8
  %97 = load i32, ptr @hf_external_port_requested, align 4
  %98 = load ptr, ptr %5, align 8
  %99 = load i32, ptr %13, align 4
  %100 = call ptr @proto_tree_add_item(ptr noundef %96, i32 noundef %97, ptr noundef %98, i32 noundef %99, i32 noundef 2, i32 noundef 0)
  %101 = load i32, ptr %13, align 4
  %102 = add i32 %101, 2
  store i32 %102, ptr %13, align 4
  %103 = load ptr, ptr %9, align 8
  %104 = load i32, ptr @hf_rpmlis, align 4
  %105 = load ptr, ptr %5, align 8
  %106 = load i32, ptr %13, align 4
  %107 = call ptr @proto_tree_add_item(ptr noundef %103, i32 noundef %104, ptr noundef %105, i32 noundef %106, i32 noundef 4, i32 noundef 0)
  %108 = load i32, ptr %13, align 4
  %109 = add i32 %108, 4
  store i32 %109, ptr %13, align 4
  br label %152

110:                                              ; preds = %4, %4
  %111 = load ptr, ptr %9, align 8
  %112 = load i32, ptr @hf_result_code, align 4
  %113 = load ptr, ptr %5, align 8
  %114 = load i32, ptr %13, align 4
  %115 = call ptr @proto_tree_add_item(ptr noundef %111, i32 noundef %112, ptr noundef %113, i32 noundef %114, i32 noundef 2, i32 noundef 0)
  %116 = load i32, ptr %13, align 4
  %117 = add i32 %116, 2
  store i32 %117, ptr %13, align 4
  %118 = load ptr, ptr %9, align 8
  %119 = load i32, ptr @hf_sssoe, align 4
  %120 = load ptr, ptr %5, align 8
  %121 = load i32, ptr %13, align 4
  %122 = call ptr @proto_tree_add_item(ptr noundef %118, i32 noundef %119, ptr noundef %120, i32 noundef %121, i32 noundef 4, i32 noundef 0)
  %123 = load i32, ptr %13, align 4
  %124 = add i32 %123, 4
  store i32 %124, ptr %13, align 4
  %125 = load ptr, ptr %9, align 8
  %126 = load i32, ptr @hf_internal_port, align 4
  %127 = load ptr, ptr %5, align 8
  %128 = load i32, ptr %13, align 4
  %129 = call ptr @proto_tree_add_item(ptr noundef %125, i32 noundef %126, ptr noundef %127, i32 noundef %128, i32 noundef 2, i32 noundef 0)
  %130 = load i32, ptr %13, align 4
  %131 = add i32 %130, 2
  store i32 %131, ptr %13, align 4
  %132 = load ptr, ptr %9, align 8
  %133 = load i32, ptr @hf_external_port_mapped, align 4
  %134 = load ptr, ptr %5, align 8
  %135 = load i32, ptr %13, align 4
  %136 = call ptr @proto_tree_add_item(ptr noundef %132, i32 noundef %133, ptr noundef %134, i32 noundef %135, i32 noundef 2, i32 noundef 0)
  %137 = load i32, ptr %13, align 4
  %138 = add i32 %137, 2
  store i32 %138, ptr %13, align 4
  %139 = load ptr, ptr %9, align 8
  %140 = load i32, ptr @hf_pmlis, align 4
  %141 = load ptr, ptr %5, align 8
  %142 = load i32, ptr %13, align 4
  %143 = call ptr @proto_tree_add_item(ptr noundef %139, i32 noundef %140, ptr noundef %141, i32 noundef %142, i32 noundef 4, i32 noundef 0)
  %144 = load i32, ptr %13, align 4
  %145 = add i32 %144, 4
  store i32 %145, ptr %13, align 4
  br label %152

146:                                              ; preds = %4
  %147 = load ptr, ptr %6, align 8
  %148 = load ptr, ptr %11, align 8
  %149 = load i8, ptr %14, align 1
  %150 = zext i8 %149 to i32
  %151 = call ptr (ptr, ptr, ptr, ptr, ...) @expert_add_info_format(ptr noundef %147, ptr noundef %148, ptr noundef @ei_natpmp_opcode_unknown, ptr noundef @.str.157, i32 noundef %150)
  br label %152

152:                                              ; preds = %146, %110, %81, %59, %4
  %153 = load i32, ptr %13, align 4
  %154 = load i32, ptr %12, align 4
  %155 = sub i32 %153, %154
  call void @llvm.lifetime.end.p0(i64 1, ptr %14) #4
  call void @llvm.lifetime.end.p0(i64 4, ptr %13) #4
  call void @llvm.lifetime.end.p0(i64 4, ptr %12) #4
  call void @llvm.lifetime.end.p0(i64 8, ptr %11) #4
  call void @llvm.lifetime.end.p0(i64 8, ptr %10) #4
  call void @llvm.lifetime.end.p0(i64 8, ptr %9) #4
  ret i32 %155
}