; Function Attrs: null_pointer_is_valid sspstrong uwtable
define internal range(i32 2, 17) i32 @dissect_nat_pmp(ptr noundef %0, ptr noundef %1, ptr noundef %2, ptr readnone captures(none) %3) #0 {
  %5 = getelementptr inbounds nuw i8, ptr %1, i64 8
  %6 = load ptr, ptr %5, align 8
  tail call void @col_set_str(ptr noundef %6, i32 noundef 35, ptr noundef nonnull @.str.115)
  %7 = load ptr, ptr %5, align 8
  tail call void @col_clear(ptr noundef %7, i32 noundef 25)
  %8 = load i32, ptr @proto_nat_pmp, align 4
  %9 = tail call ptr @proto_tree_add_item(ptr noundef %2, i32 noundef %8, ptr noundef %0, i32 noundef 0, i32 noundef -1, i32 noundef 0)
  %10 = load i32, ptr @ett_nat_pmp, align 4
  %11 = tail call ptr @proto_item_add_subtree(ptr noundef %9, i32 noundef %10)
  %12 = load i32, ptr @hf_version, align 4
  %13 = tail call ptr @proto_tree_add_item(ptr noundef %11, i32 noundef %12, ptr noundef %0, i32 noundef 0, i32 noundef 1, i32 noundef 0)
  %14 = tail call zeroext i8 @tvb_get_uint8(ptr noundef %0, i32 noundef 1)
  %15 = zext i8 %14 to i32
  %16 = tail call ptr @val_to_str(i32 noundef %15, ptr noundef nonnull @opcode_vals, ptr noundef nonnull @.str.157)
  tail call void (ptr, ptr, ...) @proto_item_append_text(ptr noundef %9, ptr noundef nonnull @.str.156, ptr noundef %16)
  %17 = load i32, ptr @hf_opcode, align 4
  %18 = tail call ptr @proto_tree_add_item(ptr noundef %11, i32 noundef %17, ptr noundef %0, i32 noundef 1, i32 noundef 1, i32 noundef 0)
  %19 = load ptr, ptr %5, align 8
  %20 = tail call ptr @val_to_str(i32 noundef %15, ptr noundef nonnull @opcode_vals, ptr noundef nonnull @.str.157)
  tail call void @col_add_str(ptr noundef %19, i32 noundef 25, ptr noundef %20)
  switch i8 %14, label %48 [
    i8 0, label %50
    i8 -128, label %21
    i8 1, label %28
    i8 2, label %28
    i8 -127, label %37
    i8 -126, label %37
  ]

21:                                               ; preds = %4
  %22 = load i32, ptr @hf_result_code, align 4
  %23 = tail call ptr @proto_tree_add_item(ptr noundef %11, i32 noundef %22, ptr noundef %0, i32 noundef 2, i32 noundef 2, i32 noundef 0)
  %24 = load i32, ptr @hf_sssoe, align 4
  %25 = tail call ptr @proto_tree_add_item(ptr noundef %11, i32 noundef %24, ptr noundef %0, i32 noundef 4, i32 noundef 4, i32 noundef 0)
  %26 = load i32, ptr @hf_external_ip, align 4
  %27 = tail call ptr @proto_tree_add_item(ptr noundef %11, i32 noundef %26, ptr noundef %0, i32 noundef 8, i32 noundef 4, i32 noundef 0)
  br label %50

28:                                               ; preds = %4, %4
  %29 = load i32, ptr @hf_reserved, align 4
  %30 = tail call ptr @proto_tree_add_item(ptr noundef %11, i32 noundef %29, ptr noundef %0, i32 noundef 2, i32 noundef 2, i32 noundef 0)
  %31 = load i32, ptr @hf_internal_port, align 4
  %32 = tail call ptr @proto_tree_add_item(ptr noundef %11, i32 noundef %31, ptr noundef %0, i32 noundef 4, i32 noundef 2, i32 noundef 0)
  %33 = load i32, ptr @hf_external_port_requested, align 4
  %34 = tail call ptr @proto_tree_add_item(ptr noundef %11, i32 noundef %33, ptr noundef %0, i32 noundef 6, i32 noundef 2, i32 noundef 0)
  %35 = load i32, ptr @hf_rpmlis, align 4
  %36 = tail call ptr @proto_tree_add_item(ptr noundef %11, i32 noundef %35, ptr noundef %0, i32 noundef 8, i32 noundef 4, i32 noundef 0)
  br label %50

37:                                               ; preds = %4, %4
  %38 = load i32, ptr @hf_result_code, align 4
  %39 = tail call ptr @proto_tree_add_item(ptr noundef %11, i32 noundef %38, ptr noundef %0, i32 noundef 2, i32 noundef 2, i32 noundef 0)
  %40 = load i32, ptr @hf_sssoe, align 4
  %41 = tail call ptr @proto_tree_add_item(ptr noundef %11, i32 noundef %40, ptr noundef %0, i32 noundef 4, i32 noundef 4, i32 noundef 0)
  %42 = load i32, ptr @hf_internal_port, align 4
  %43 = tail call ptr @proto_tree_add_item(ptr noundef %11, i32 noundef %42, ptr noundef %0, i32 noundef 8, i32 noundef 2, i32 noundef 0)
  %44 = load i32, ptr @hf_external_port_mapped, align 4
  %45 = tail call ptr @proto_tree_add_item(ptr noundef %11, i32 noundef %44, ptr noundef %0, i32 noundef 10, i32 noundef 2, i32 noundef 0)
  %46 = load i32, ptr @hf_pmlis, align 4
  %47 = tail call ptr @proto_tree_add_item(ptr noundef %11, i32 noundef %46, ptr noundef %0, i32 noundef 12, i32 noundef 4, i32 noundef 0)
  br label %50

48:                                               ; preds = %4
  %49 = tail call ptr (ptr, ptr, ptr, ptr, ...) @expert_add_info_format(ptr noundef %1, ptr noundef %18, ptr noundef nonnull @ei_natpmp_opcode_unknown, ptr noundef nonnull @.str.157, i32 noundef %15)
  br label %50

50:                                               ; preds = %48, %37, %28, %21, %4
  %.0 = phi i32 [ 2, %48 ], [ 16, %37 ], [ 12, %28 ], [ 12, %21 ], [ 2, %4 ]
  ret i32 %.0
}